target datalayout = "e-m:e-p270:32:32-p271:32:32-p272:64:64-i64:64-i128:128-f80:128-n8:16:32:64-S128"
target triple = "x86_64-pc-linux-gnu"

@.str = private unnamed_addr constant [35 x i8] c"../openssl/test/cipherbytes_test.c\00", align 1
@s = internal global ptr null, align 8
@.str.7 = private unnamed_addr constant [53 x i8] c"SSL_bytes_to_cipher_list(s, bytes, 0, 0, &sk, &scsv)\00", align 1
@.str.8 = private unnamed_addr constant [2 x i8] c"0\00", align 1
@.str.9 = private unnamed_addr constant [3 x i8] c"sk\00", align 1
@.str.10 = private unnamed_addr constant [5 x i8] c"scsv\00", align 1

; Function Attrs: inlinehint nounwind uwtable
define internal ptr @ossl_check_SSL_CIPHER_sk_type(ptr noundef %0) #4 {
  %2 = alloca ptr, align 8
  store ptr %0, ptr %2, align 8, !tbaa !11
  %3 = load ptr, ptr %2, align 8, !tbaa !11
  ret ptr %3
}

; Function Attrs: nounwind uwtable
define internal i32 @test_empty() #0 {
  %1 = alloca ptr, align 8
  %2 = alloca ptr, align 8
  %3 = alloca [1 x i8], align 1
  %4 = alloca i32, align 4
  call void @llvm.lifetime.start.p0(i64 8, ptr %1) #7
  store ptr null, ptr %1, align 8, !tbaa !11
  call void @llvm.lifetime.start.p0(i64 8, ptr %2) #7
  store ptr null, ptr %2, align 8, !tbaa !11
  call void @llvm.lifetime.start.p0(i64 1, ptr %3) #7
  call void @llvm.memset.p0.i64(ptr align 1 %3, i8 0, i64 1, i1 false)
  call void @llvm.lifetime.start.p0(i64 4, ptr %4) #7
  store i32 0, ptr %4, align 4, !tbaa !13
  %5 = load ptr, ptr @s, align 8, !tbaa !9
  %6 = getelementptr inbounds [1 x i8], ptr %3, i64 0, i64 0
  %7 = call i32 @SSL_bytes_to_cipher_list(ptr noundef %5, ptr noundef %6, i64 noundef 0, i32 noundef 0, ptr noundef %1, ptr noundef %2)
  %8 = call i32 @test_int_eq(ptr noundef @.str, i32 noundef 33, ptr noundef @.str.7, ptr noundef @.str.8, i32 noundef %7, i32 noundef 0)
  %9 = icmp ne i32 %8, 0
  br i1 %9, label %10, label %18

10:                                               ; preds = %0
  %11 = load ptr, ptr %1, align 8, !tbaa !11
  %12 = call i32 @test_ptr_null(ptr noundef @.str, i32 noundef 34, ptr noundef @.str.9, ptr noundef %11)
  %13 = icmp ne i32 %12, 0
  br i1 %13, label %14, label %18

14:                                               ; preds = %10
  %15 = load ptr, ptr %2, align 8, !tbaa !11
  %16 = call i32 @test_ptr_null(ptr noundef @.str, i32 noundef 35, ptr noundef @.str.10, ptr noundef %15)
  %17 = icmp ne i32 %16, 0
  br i1 %17, label %19, label %18

18:                                               ; preds = %14, %10, %0
  br label %20

19:                                               ; preds = %14
  store i32 1, ptr %4, align 4, !tbaa !13
  br label %20

20:                                               ; preds = %19, %18
  %21 = load ptr, ptr %1, align 8, !tbaa !11
  %22 = call ptr @ossl_check_SSL_CIPHER_sk_type(ptr noundef %21)
  call void @OPENSSL_sk_free(ptr noundef %22)
  %23 = load ptr, ptr %2, align 8, !tbaa !11
  %24 = call ptr @ossl_check_SSL_CIPHER_sk_type(ptr noundef %23)
  call void @OPENSSL_sk_free(ptr noundef %24)
  %25 = load i32, ptr %4, align 4, !tbaa !13
  call void @llvm.lifetime.end.p0(i64 4, ptr %4) #7
  call void @llvm.lifetime.end.p0(i64 1, ptr %3) #7
  call void @llvm.lifetime.end.p0(i64 8, ptr %2) #7
  call void @llvm.lifetime.end.p0(i64 8, ptr %1) #7
  ret i32 %25
}