; Function Attrs: nounwind uwtable
define internal range(i32 0, 2) i32 @test_empty() #0 {
  %1 = alloca ptr, align 8
  %2 = alloca ptr, align 8
  %3 = alloca [1 x i8], align 1
  call void @llvm.lifetime.start.p0(i64 8, ptr nonnull %1) #5
  store ptr null, ptr %1, align 8, !tbaa !11
  call void @llvm.lifetime.start.p0(i64 8, ptr nonnull %2) #5
  store ptr null, ptr %2, align 8, !tbaa !11
  call void @llvm.lifetime.start.p0(i64 1, ptr nonnull %3) #5
  store i8 0, ptr %3, align 1
  %4 = load ptr, ptr @s, align 8, !tbaa !9
  %5 = call i32 @SSL_bytes_to_cipher_list(ptr noundef %4, ptr noundef nonnull %3, i64 noundef 0, i32 noundef 0, ptr noundef nonnull %1, ptr noundef nonnull %2) #5
  %6 = call i32 @test_int_eq(ptr noundef nonnull @.str, i32 noundef 33, ptr noundef nonnull @.str.7, ptr noundef nonnull @.str.8, i32 noundef %5, i32 noundef 0) #5
  %.not = icmp eq i32 %6, 0
  br i1 %.not, label %13, label %7

7:                                                ; preds = %0
  %8 = load ptr, ptr %1, align 8, !tbaa !11
  %9 = call i32 @test_ptr_null(ptr noundef nonnull @.str, i32 noundef 34, ptr noundef nonnull @.str.9, ptr noundef %8) #5
  %.not1 = icmp eq i32 %9, 0
  br i1 %.not1, label %13, label %10

10:                                               ; preds = %7
  %11 = load ptr, ptr %2, align 8, !tbaa !11
  %12 = call i32 @test_ptr_null(ptr noundef nonnull @.str, i32 noundef 35, ptr noundef nonnull @.str.10, ptr noundef %11) #5
  %.not2 = icmp ne i32 %12, 0
  %spec.select = zext i1 %.not2 to i32
  br label %13

13:                                               ; preds = %10, %0, %7
  %.0 = phi i32 [ 0, %7 ], [ 0, %0 ], [ %spec.select, %10 ]
  %14 = load ptr, ptr %1, align 8, !tbaa !11
  call void @OPENSSL_sk_free(ptr noundef %14) #5
  %15 = load ptr, ptr %2, align 8, !tbaa !11
  call void @OPENSSL_sk_free(ptr noundef %15) #5
  call void @llvm.lifetime.end.p0(i64 1, ptr nonnull %3) #5
  call void @llvm.lifetime.end.p0(i64 8, ptr nonnull %2) #5
  call void @llvm.lifetime.end.p0(i64 8, ptr nonnull %1) #5
  ret i32 %.0
}